(dp0
S'METTS MARK'
p1
(dp2
S'fraction_to_poi'
p3
F0.034482758620689655
sS'to_messages'
p4
F807.0
sS'expenses'
p5
F94299.0
sS'poi'
p6
I00
ssS'BAXTER JOHN C'
p7
(dp8
g3
F0.14634146341463414
sg4
F944.0
sg5
F11200.0
sg6
I00
ssS'ELLIOTT STEVEN'
p9
(dp10
g3
F0.14634146341463414
sg4
F944.0
sg5
F78552.0
sg6
I00
ssS'CORDES WILLIAM R'
p11
(dp12
g3
F0.0
sg4
F764.0
sg5
F0.0
sg6
I00
ssS'HANNON KEVIN P'
p13
(dp14
g3
F0.65625
sg4
F1045.0
sg5
F34039.0
sg6
I01
ssS'MORDAUNT KRISTINA M'
p15
(dp16
g3
F0.14634146341463414
sg4
F944.0
sg5
F35018.0
sg6
I00
ssS'MEYER ROCKFORD G'
p17
(dp18
g3
F0.0
sg4
F232.0
sg5
F0.0
sg6
I00
ssS'HORTON STANLEY C'
p19
(dp20
g3
F0.013979496738117428
sg4
F2350.0
sg5
F0.0
sg6
I00
ssS'PIPER GREGORY F'
p21
(dp22
g3
F0.21621621621621623
sg4
F1238.0
sg5
F43057.0
sg6
I00
ssS'HUMPHREY GENE E'
p23
(dp24
g3
F1.0
sg4
F128.0
sg5
F4994.0
sg6
I00
ssS'UMANOFF ADAM S'
p25
(dp26
g3
F0.0
sg4
F111.0
sg5
F53122.0
sg6
I00
ssS'BLACHMAN JEREMY M'
p27
(dp28
g3
F0.14285714285714285
sg4
F2475.0
sg5
F84208.0
sg6
I00
ssS'SUNDE MARTIN'
p29
(dp30
g3
F0.34210526315789475
sg4
F2647.0
sg5
F0.0
sg6
I00
ssS'GIBBS DANA R'
p31
(dp32
g3
F0.0
sg4
F169.0
sg5
F0.0
sg6
I00
ssS'LOWRY CHARLES P'
p33
(dp34
g3
F0.14634146341463414
sg4
F944.0
sg5
F0.0
sg6
I00
ssS'COLWELL WESLEY'
p35
(dp36
g3
F0.275
sg4
F1758.0
sg5
F16514.0
sg6
I01
ssS'MULLER MARK S'
p37
(dp38
g3
F0.0
sg4
F136.0
sg5
F0.0
sg6
I00
ssS'JACKSON CHARLENE R'
p39
(dp40
g3
F0.3392857142857143
sg4
F258.0
sg5
F10181.0
sg6
I00
ssS'WESTFAHL RICHARD K'
p41
(dp42
g3
F0.14634146341463414
sg4
F944.0
sg5
F51870.0
sg6
I00
ssS'WALTERS GARETH W'
p43
(dp44
g3
F0.14634146341463414
sg4
F944.0
sg5
F33785.0
sg6
I00
ssS'WALLS JR ROBERT H'
p45
(dp46
g3
F0.0
sg4
F671.0
sg5
F50936.0
sg6
I00
ssS'KITCHEN LOUISE'
p47
(dp48
g3
F0.11226851851851852
sg4
F8305.0
sg5
F5774.0
sg6
I00
ssS'CHAN RONNIE'
p49
(dp50
g3
F0.14634146341463414
sg4
F944.0
sg5
F0.0
sg6
I00
ssS'BELFER ROBERT'
p51
(dp52
g3
F0.14634146341463414
sg4
F944.0
sg5
F3285.0
sg6
I00
ssS'SHANKMAN JEFFREY A'
p53
(dp54
g3
F0.030958597538232
sg4
F3221.0
sg5
F178979.0
sg6
I00
ssS'WODRASKA JOHN'
p55
(dp56
g3
F0.14634146341463414
sg4
F944.0
sg5
F0.0
sg6
I00
ssS'BERGSIEKER RICHARD P'
p57
(dp58
g3
F0.0
sg4
F383.0
sg5
F59175.0
sg6
I00
ssS'URQUHART JOHN A'
p59
(dp60
g3
F0.14634146341463414
sg4
F944.0
sg5
F228656.0
sg6
I00
ssS'BIBI PHILIPPE A'
p61
(dp62
g3
F0.2
sg4
F1607.0
sg5
F38559.0
sg6
I00
ssS'PIRO JIM'
p63
(dp64
g3
F0.0625
sg4
F58.0
sg5
F0.0
sg6
I00
ssS'RIEKER PAULA H'
p65
(dp66
g3
F0.5853658536585366
sg4
F1328.0
sg5
F33271.0
sg6
I01
ssS'WHALEY DAVID A'
p67
(dp68
g3
F0.14634146341463414
sg4
F944.0
sg5
F0.0
sg6
I00
ssS'BECK SALLY W'
p69
(dp70
g3
F0.08887865530739121
sg4
F7315.0
sg5
F37172.0
sg6
I00
ssS'HAUG DAVID L'
p71
(dp72
g3
F0.3684210526315789
sg4
F573.0
sg5
F475.0
sg6
I00
ssS'ECHOLS JOHN B'
p73
(dp74
g3
F0.14634146341463414
sg4
F944.0
sg5
F21530.0
sg6
I00
ssS'MENDELSOHN JOHN'
p75
(dp76
g3
F0.14634146341463414
sg4
F944.0
sg5
F148.0
sg6
I00
ssS'HICKERSON GARY J'
p77
(dp78
g3
F0.037037037037037035
sg4
F1320.0
sg5
F98849.0
sg6
I00
ssS'CLINE KENNETH W'
p79
(dp80
g3
F0.14634146341463414
sg4
F944.0
sg5
F0.0
sg6
I00
ssS'LEWIS RICHARD'
p81
(dp82
g3
F0.0
sg4
F952.0
sg5
F0.0
sg6
I00
ssS'HAYES ROBERT E'
p83
(dp84
g3
F0.0
sg4
F504.0
sg5
F0.0
sg6
I00
ssS'KOPPER MICHAEL J'
p85
(dp86
g3
F0.34831460674157305
sg4
F1875.0
sg5
F118134.0
sg6
I01
ssS'LEFF DANIEL P'
p87
(dp88
g3
F0.2222222222222222
sg4
F2822.0
sg5
F0.0
sg6
I00
ssS'CHRISTODOULOU DIOMEDES'
p89
(dp90
g3
F0.14634146341463414
sg4
F944.0
sg5
F0.0
sg6
I00
ssS'BERBERIAN DAVID'
p91
(dp92
g3
F0.14634146341463414
sg4
F944.0
sg5
F11892.0
sg6
I00
ssS'DETMERING TIMOTHY J'
p93
(dp94
g3
F0.14634146341463414
sg4
F944.0
sg5
F52255.0
sg6
I00
ssS'WAKEHAM JOHN'
p95
(dp96
g3
F0.14634146341463414
sg4
F944.0
sg5
F103773.0
sg6
I00
ssS'POWERS WILLIAM'
p97
(dp98
g3
F0.0
sg4
F653.0
sg5
F0.0
sg6
I00
ssS'GOLD JOSEPH'
p99
(dp100
g3
F0.14634146341463414
sg4
F944.0
sg5
F0.0
sg6
I00
ssS'BANNANTINE JAMES M'
p101
(dp102
g3
F0.0
sg4
F566.0
sg5
F56301.0
sg6
I00
ssS'DUNCAN JOHN H'
p103
(dp104
g3
F0.14634146341463414
sg4
F944.0
sg5
F0.0
sg6
I00
ssS'SHAPIRO RICHARD S'
p105
(dp106
g3
F0.053497942386831275
sg4
F15149.0
sg5
F137767.0
sg6
I00
ssS'SHERRIFF JOHN R'
p107
(dp108
g3
F0.25
sg4
F3187.0
sg5
F0.0
sg6
I00
ssS'SHELBY REX'
p109
(dp110
g3
F0.358974358974359
sg4
F225.0
sg5
F22884.0
sg6
I01
ssS'LEMAISTRE CHARLES'
p111
(dp112
g3
F0.14634146341463414
sg4
F944.0
sg5
F0.0
sg6
I00
ssS'DEFFNER JOSEPH M'
p113
(dp114
g3
F0.05405405405405406
sg4
F714.0
sg5
F41626.0
sg6
I00
ssS'KISHKILL JOSEPH G'
p115
(dp116
g3
F0.14634146341463414
sg4
F944.0
sg5
F116335.0
sg6
I00
ssS'WHALLEY LAWRENCE G'
p117
(dp118
g3
F0.04316546762589928
sg4
F6019.0
sg5
F57838.0
sg6
I00
ssS'MCCARTY DANNY J'
p119
(dp120
g3
F0.009302325581395349
sg4
F1433.0
sg5
F0.0
sg6
I00
ssS'MCCONNELL MICHAEL S'
p121
(dp122
g3
F0.07075127644055434
sg4
F3329.0
sg5
F81364.0
sg6
I00
ssS'DELAINEY DAVID W'
p123
(dp124
g3
F0.198435972629521
sg4
F3093.0
sg5
F86174.0
sg6
I01
ssS'SULLIVAN-SHAKLOVITZ COLLEEN'
p125
(dp126
g3
F0.14634146341463414
sg4
F944.0
sg5
F0.0
sg6
I00
ssS'WROBEL BRUCE'
p127
(dp128
g3
F0.14634146341463414
sg4
F944.0
sg5
F0.0
sg6
I00
ssS'LINDHOLM TOD A'
p129
(dp130
g3
F0.14634146341463414
sg4
F944.0
sg5
F57727.0
sg6
I00
ssS'MEYER JEROME J'
p131
(dp132
g3
F0.14634146341463414
sg4
F944.0
sg5
F2151.0
sg6
I00
ssS'LAY KENNETH L'
p133
(dp134
g3
F0.4444444444444444
sg4
F4273.0
sg5
F99832.0
sg6
I01
ssS'BUTTS ROBERT H'
p135
(dp136
g3
F0.14634146341463414
sg4
F944.0
sg5
F9410.0
sg6
I00
ssS'OLSON CINDY K'
p137
(dp138
g3
F0.28846153846153844
sg4
F1184.0
sg5
F63791.0
sg6
I00
ssS'MCDONALD REBECCA'
p139
(dp140
g3
F0.07692307692307693
sg4
F894.0
sg5
F0.0
sg6
I00
ssS'CUMBERLAND MICHAEL S'
p141
(dp142
g3
F0.14634146341463414
sg4
F944.0
sg5
F22344.0
sg6
I00
ssS'GAHN ROBERT S'
p143
(dp144
g3
F0.14634146341463414
sg4
F944.0
sg5
F50080.0
sg6
I00
ssS'MCCLELLAN GEORGE'
p145
(dp146
g3
F0.0
sg4
F1744.0
sg5
F228763.0
sg6
I00
ssS'HERMANN ROBERT J'
p147
(dp148
g3
F0.14634146341463414
sg4
F944.0
sg5
F48357.0
sg6
I00
ssS'SCRIMSHAW MATTHEW'
p149
(dp150
g3
F0.14634146341463414
sg4
F944.0
sg5
F0.0
sg6
I00
ssS'GATHMANN WILLIAM D'
p151
(dp152
g3
F0.14634146341463414
sg4
F944.0
sg5
F0.0
sg6
I00
ssS'HAEDICKE MARK E'
p153
(dp154
g3
F0.03142709943328181
sg4
F4009.0
sg5
F76169.0
sg6
I00
ssS'BOWEN JR RAYMOND M'
p155
(dp156
g3
F0.5555555555555556
sg4
F1858.0
sg5
F65907.0
sg6
I01
ssS'GILLIS JOHN'
p157
(dp158
g3
F0.14634146341463414
sg4
F944.0
sg5
F0.0
sg6
I00
ssS'FITZGERALD JAY L'
p159
(dp160
g3
F0.5
sg4
F936.0
sg5
F23870.0
sg6
I00
ssS'MORAN MICHAEL P'
p161
(dp162
g3
F0.0
sg4
F672.0
sg5
F0.0
sg6
I00
ssS'REDMOND BRIAN L'
p163
(dp164
g3
F0.22171945701357465
sg4
F1671.0
sg5
F14689.0
sg6
I00
ssS'BAZELIDES PHILIP J'
p165
(dp166
g3
F0.14634146341463414
sg4
F944.0
sg5
F0.0
sg6
I00
ssS'BELDEN TIMOTHY N'
p167
(dp168
g3
F0.2231404958677686
sg4
F7991.0
sg5
F17355.0
sg6
I01
ssS'DURAN WILLIAM D'
p169
(dp170
g3
F0.25
sg4
F904.0
sg5
F25785.0
sg6
I00
ssS'THORN TERENCE H'
p171
(dp172
g3
F0.0
sg4
F266.0
sg5
F46145.0
sg6
I00
ssS'FASTOW ANDREW S'
p173
(dp174
g3
F0.34831460674157305
sg4
F1875.0
sg5
F55921.0
sg6
I01
ssS'FOY JOE'
p175
(dp176
g3
F0.0
sg4
F57.0
sg5
F0.0
sg6
I00
ssS'CALGER CHRISTOPHER F'
p177
(dp178
g3
F0.1736111111111111
sg4
F2598.0
sg5
F35818.0
sg6
I01
ssS'RICE KENNETH D'
p179
(dp180
g3
F0.2222222222222222
sg4
F905.0
sg5
F46950.0
sg6
I01
ssS'KAMINSKI WINCENTY J'
p181
(dp182
g3
F0.011901447661469933
sg4
F4607.0
sg5
F83585.0
sg6
I00
ssS'LOCKHART EUGENE E'
p183
(dp184
g3
F0.14634146341463414
sg4
F944.0
sg5
F0.0
sg6
I00
ssS'COX DAVID'
p185
(dp186
g3
F0.12121212121212122
sg4
F102.0
sg5
F27861.0
sg6
I00
ssS'OVERDYKE JR JERE C'
p187
(dp188
g3
F0.14634146341463414
sg4
F944.0
sg5
F18834.0
sg6
I00
ssS'PEREIRA PAULO V. FERRAZ'
p189
(dp190
g3
F0.14634146341463414
sg4
F944.0
sg5
F27942.0
sg6
I00
ssS'STABLER FRANK'
p191
(dp192
g3
F0.14634146341463414
sg4
F944.0
sg5
F16514.0
sg6
I00
ssS'SKILLING JEFFREY K'
p193
(dp194
g3
F0.2777777777777778
sg4
F3627.0
sg5
F29336.0
sg6
I01
ssS'BLAKE JR. NORMAN P'
p195
(dp196
g3
F0.14634146341463414
sg4
F944.0
sg5
F1279.0
sg6
I00
ssS'SHERRICK JEFFREY B'
p197
(dp198
g3
F0.72
sg4
F613.0
sg5
F0.0
sg6
I00
ssS'PRENTICE JAMES'
p199
(dp200
g3
F0.14634146341463414
sg4
F944.0
sg5
F0.0
sg6
I00
ssS'GRAY RODNEY'
p201
(dp202
g3
F0.14634146341463414
sg4
F944.0
sg5
F0.0
sg6
I00
ssS'PICKERING MARK R'
p203
(dp204
g3
F0.0
sg4
F898.0
sg5
F31653.0
sg6
I00
ssS'THE TRAVEL AGENCY IN THE PARK'
p205
(dp206
g3
F0.14634146341463414
sg4
F944.0
sg5
F0.0
sg6
I00
ssS'NOLES JAMES L'
p207
(dp208
g3
F0.14634146341463414
sg4
F944.0
sg5
F0.0
sg6
I00
ssS'KEAN STEVEN J'
p209
(dp210
g3
F0.05725699067909454
sg4
F12754.0
sg5
F41953.0
sg6
I00
ssS'FOWLER PEGGY'
p211
(dp212
g3
F0.0
sg4
F517.0
sg5
F0.0
sg6
I00
ssS'WASAFF GEORGE'
p213
(dp214
g3
F0.23333333333333334
sg4
F400.0
sg5
F0.0
sg6
I00
ssS'WHITE JR THOMAS E'
p215
(dp216
g3
F0.14634146341463414
sg4
F944.0
sg5
F81353.0
sg6
I00
ssS'ALLEN PHILLIP K'
p217
(dp218
g3
F0.029612756264236904
sg4
F2902.0
sg5
F13868.0
sg6
I00
ssS'SHARP VICTORIA T'
p219
(dp220
g3
F0.04411764705882353
sg4
F3136.0
sg5
F116337.0
sg6
I00
ssS'JAEDICKE ROBERT'
p221
(dp222
g3
F0.14634146341463414
sg4
F944.0
sg5
F0.0
sg6
I00
ssS'WINOKUR JR. HERBERT S'
p223
(dp224
g3
F0.14634146341463414
sg4
F944.0
sg5
F1413.0
sg6
I00
ssS'BROWN MICHAEL'
p225
(dp226
g3
F0.024390243902439025
sg4
F1486.0
sg5
F49288.0
sg6
I00
ssS'BADUM JAMES P'
p227
(dp228
g3
F0.14634146341463414
sg4
F944.0
sg5
F3486.0
sg6
I00
ssS'HUGHES JAMES A'
p229
(dp230
g3
F0.14705882352941177
sg4
F719.0
sg5
F0.0
sg6
I00
ssS'REYNOLDS LAWRENCE'
p231
(dp232
g3
F0.14634146341463414
sg4
F944.0
sg5
F8409.0
sg6
I00
ssS'DIMICHELE RICHARD G'
p233
(dp234
g3
F0.14634146341463414
sg4
F944.0
sg5
F35812.0
sg6
I00
ssS'BHATNAGAR SANJAY'
p235
(dp236
g3
F0.034482758620689655
sg4
F523.0
sg5
F137864.0
sg6
I00
ssS'CARTER REBECCA C'
p237
(dp238
g3
F0.4666666666666667
sg4
F312.0
sg5
F0.0
sg6
I00
ssS'BUCHANAN HAROLD G'
p239
(dp240
g3
F0.0
sg4
F1088.0
sg5
F600.0
sg6
I00
ssS'YEAP SOON'
p241
(dp242
g3
F0.14634146341463414
sg4
F944.0
sg5
F55097.0
sg6
I00
ssS'MURRAY JULIA H'
p243
(dp244
g3
F0.044444444444444446
sg4
F2192.0
sg5
F57580.0
sg6
I00
ssS'GARLAND C KEVIN'
p245
(dp246
g3
F0.6136363636363636
sg4
F209.0
sg5
F48405.0
sg6
I00
ssS'DODSON KEITH'
p247
(dp248
g3
F0.21428571428571427
sg4
F176.0
sg5
F28164.0
sg6
I00
ssS'YEAGER F SCOTT'
p249
(dp250
g3
F0.34831460674157305
sg4
F1875.0
sg5
F53947.0
sg6
I01
ssS'HIRKO JOSEPH'
p251
(dp252
g3
F0.34831460674157305
sg4
F1875.0
sg5
F77978.0
sg6
I01
ssS'DIETRICH JANET R'
p253
(dp254
g3
F0.2222222222222222
sg4
F2572.0
sg5
F3475.0
sg6
I00
ssS'DERRICK JR. JAMES V'
p255
(dp256
g3
F0.022002200220022004
sg4
F2181.0
sg5
F51124.0
sg6
I00
ssS'FREVERT MARK A'
p257
(dp258
g3
F0.2857142857142857
sg4
F3275.0
sg5
F86987.0
sg6
I00
ssS'PAI LOU L'
p259
(dp260
g3
F0.14634146341463414
sg4
F944.0
sg5
F32047.0
sg6
I00
ssS'BAY FRANKLIN R'
p261
(dp262
g3
F0.14634146341463414
sg4
F944.0
sg5
F129142.0
sg6
I00
ssS'HAYSLETT RODERICK J'
p263
(dp264
g3
F0.03581526861451461
sg4
F2649.0
sg5
F0.0
sg6
I00
ssS'FUGH JOHN L'
p265
(dp266
g3
F0.14634146341463414
sg4
F944.0
sg5
F0.0
sg6
I00
ssS'FALLON JAMES B'
p267
(dp268
g3
F0.49333333333333335
sg4
F1755.0
sg5
F95924.0
sg6
I00
ssS'KOENIG MARK E'
p269
(dp270
g3
F0.2459016393442623
sg4
F2374.0
sg5
F127017.0
sg6
I01
ssS'SAVAGE FRANK'
p271
(dp272
g3
F0.14634146341463414
sg4
F944.0
sg5
F0.0
sg6
I00
ssS'IZZO LAWRENCE L'
p273
(dp274
g3
F0.2631578947368421
sg4
F496.0
sg5
F28093.0
sg6
I00
ssS'TILNEY ELIZABETH A'
p275
(dp276
g3
F0.5789473684210527
sg4
F460.0
sg5
F0.0
sg6
I00
ssS'MARTIN AMANDA K'
p277
(dp278
g3
F0.0
sg4
F1522.0
sg5
F8211.0
sg6
I00
ssS'BUY RICHARD B'
p279
(dp280
g3
F0.06742640075973409
sg4
F3523.0
sg5
F0.0
sg6
I00
ssS'GRAMM WENDY L'
p281
(dp282
g3
F0.14634146341463414
sg4
F944.0
sg5
F0.0
sg6
I00
ssS'CAUSEY RICHARD A'
p283
(dp284
g3
F0.24489795918367346
sg4
F1892.0
sg5
F30674.0
sg6
I01
ssS'TAYLOR MITCHELL S'
p285
(dp286
g3
F0.0
sg4
F533.0
sg5
F0.0
sg6
I00
ssS'DONAHUE JR JEFFREY M'
p287
(dp288
g3
F0.5
sg4
F865.0
sg5
F96268.0
sg6
I00
ssS'GLISAN JR BEN F'
p289
(dp290
g3
F0.375
sg4
F873.0
sg5
F125978.0
sg6
I01
ss.