(dp0
S'METTS MARK'
p1
(dp2
I0
F-0.35806143567002585
sI1
F-0.33548104173890125
sI2
F-0.8400809533978146
sS'poi'
p3
I00
ssS'BAXTER JOHN C'
p4
(dp5
I0
F2.4157740876439773
sI1
F0.4814751081932834
sI2
F-0.5468707650437595
sg3
I00
ssS'ELLIOTT STEVEN'
p6
(dp7
I0
F0.1600229060672229
sI1
F0.7718958633690686
sI2
F-0.004193121390551655
sg3
I00
ssS'CORDES WILLIAM R'
p8
(dp9
I0
F-1.4707070207855175
sI1
F0.5502799785847068
sI2
F-0.7839926388980365
sg3
I00
ssS'HANNON KEVIN P'
p10
(dp11
I0
F3.3857008523511025
sI1
F-1.1525741701845351
sI2
F2.430548959798612
sg3
I01
ssS'MORDAUNT KRISTINA M'
p12
(dp13
I0
F-0.6635304455743932
sI1
F-0.15482617247996855
sI2
F-0.09259348314889344
sg3
I00
ssS'MEYER ROCKFORD G'
p14
(dp15
I0
F-1.5332905788299518
sI1
F0.6237067672066625
sI2
F-0.7811334752489143
sg3
I00
ssS'HORTON STANLEY C'
p16
(dp17
I0
F-0.5130688311862182
sI1
F1.1858025244072354
sI2
F-0.6713767969916502
sg3
I00
ssS'PIPER GREGORY F'
p18
(dp19
I0
F-0.4391463374403566
sI1
F-0.3435368735643517
sI2
F0.345161747990103
sg3
I00
ssS'HUMPHREY GENE E'
p20
(dp21
I0
F-0.08717269084449084
sI1
F0.16388498748938177
sI2
F5.1218546399468305
sg3
I00
ssS'UMANOFF ADAM S'
p22
(dp23
I0
F-0.6334803830464729
sI1
F-0.07897072315876964
sI2
F-1.0157968759224218
sg3
I00
ssS'BLACHMAN JEREMY M'
p24
(dp25
I0
F0.052093460686534546
sI1
F-0.12108351895496906
sI2
F-0.36967662142231444
sg3
I00
ssS'SUNDE MARTIN'
p26
(dp27
I0
F-0.028723360109504367
sI1
F-0.40932549655960837
sI2
F0.9128534123832077
sg3
I00
ssS'GIBBS DANA R'
p28
(dp29
I0
F-1.0631647805288518
sI1
F0.893472629697015
sI2
F-0.8910732905960028
sg3
I00
ssS'LOWRY CHARLES P'
p30
(dp31
I0
F-1.3373973696254293
sI1
F0.2313163020005332
sI2
F0.07825326390034688
sg3
I00
ssS'COLWELL WESLEY'
p32
(dp33
I0
F0.8929311394965477
sI1
F-2.5344780733865746
sI2
F0.4933198475849921
sg3
I01
ssS'MULLER MARK S'
p34
(dp35
I0
F0.8317206866076282
sI1
F-0.2731109403779137
sI2
F-1.4837797411767375
sg3
I00
ssS'JACKSON CHARLENE R'
p36
(dp37
I0
F-0.43397948608681153
sI1
F-0.1863125029232628
sI2
F1.0567831069132878
sg3
I00
ssS'WESTFAHL RICHARD K'
p38
(dp39
I0
F-1.0884791653002726
sI1
F0.11875965974203505
sI2
F-0.024759971328170743
sg3
I00
ssS'WALTERS GARETH W'
p40
(dp41
I0
F-1.2387407895897569
sI1
F0.3527851945846415
sI2
F0.08375962237408884
sg3
I00
ssS'WALLS JR ROBERT H'
p42
(dp43
I0
F0.6040016018056822
sI1
F0.7017499658755785
sI2
F-1.1621586018155823
sg3
I00
ssS'KITCHEN LOUISE'
p44
(dp45
I0
F1.469411254288724
sI1
F-2.9017718541883686
sI2
F-0.6558493359904419
sg3
I00
ssS'CHAN RONNIE'
p46
(dp47
I0
F-1.348095469673045
sI1
F0.11626277405498466
sI2
F0.07422368823254039
sg3
I00
ssS'BELFER ROBERT'
p48
(dp49
I0
F-1.3463990149229836
sI1
F0.11451897126546819
sI2
F0.07418925211919813
sg3
I00
ssS'SHANKMAN JEFFREY A'
p50
(dp51
I0
F0.8346334385047337
sI1
F-0.8754361870608484
sI2
F-1.1236133335894418
sg3
I00
ssS'WODRASKA JOHN'
p52
(dp53
I0
F-1.393193043954549
sI1
F0.16261902129922465
sI2
F0.07513911800121673
sg3
I00
ssS'BERGSIEKER RICHARD P'
p54
(dp55
I0
F-0.74759611520053
sI1
F0.036959066595147416
sI2
F-0.9593298940009614
sg3
I00
ssS'URQUHART JOHN A'
p56
(dp57
I0
F-1.3764540208475113
sI1
F0.14541281218178354
sI2
F0.0747993347579963
sg3
I00
ssS'BIBI PHILIPPE A'
p58
(dp59
I0
F-0.04632505862411663
sI1
F0.02466414762570202
sI2
F0.10447375696634387
sg3
I00
ssS'PIRO JIM'
p60
(dp61
I0
F-1.5803639168186636
sI1
F0.466949713319918
sI2
F-0.4139154205103549
sg3
I00
ssS'RIEKER PAULA H'
p62
(dp63
I0
F0.17065455617756167
sI1
F-0.27575946558096226
sI2
F2.5063012031270198
sg3
I01
ssS'WHALEY DAVID A'
p64
(dp65
I0
F-1.3783946468926556
sI1
F0.1808392444458018
sI2
F0.07596506675222846
sg3
I00
ssS'BECK SALLY W'
p66
(dp67
I0
F-0.12721735460665054
sI1
F-1.316547780470754
sI2
F-0.5001849544721254
sg3
I00
ssS'HAUG DAVID L'
p68
(dp69
I0
F-1.146590923790749
sI1
F0.43658406850266485
sI2
F1.4139256401844507
sg3
I00
ssS'ECHOLS JOHN B'
p70
(dp71
I0
F0.378950495755454
sI1
F0.023306242772781136
sI2
F-0.6268583044415457
sg3
I00
ssS'MENDELSOHN JOHN'
p72
(dp73
I0
F-1.3458283560323547
sI1
F0.11393238528944677
sI2
F0.07417766838892961
sg3
I00
ssS'HICKERSON GARY J'
p74
(dp75
I0
F-0.20582057302402218
sI1
F-0.46693867280913265
sI2
F-0.872805172483886
sg3
I00
ssS'CLINE KENNETH W'
p76
(dp77
I0
F-1.3803611072625923
sI1
F0.1774932580829699
sI2
F0.07567062627183041
sg3
I00
ssS'LEWIS RICHARD'
p78
(dp79
I0
F-1.467089764975211
sI1
F0.5566189134715911
sI2
F-0.783414263378494
sg3
I00
ssS'HAYES ROBERT E'
p80
(dp81
I0
F-1.5579328298188415
sI1
F0.3535197793403803
sI2
F-0.7924878447496283
sg3
I00
ssS'KOPPER MICHAEL J'
p82
(dp83
I0
F0.14104831487672087
sI1
F-0.6253939293845352
sI2
F0.914348515716166
sg3
I01
ssS'LEFF DANIEL P'
p84
(dp85
I0
F0.6121104821540779
sI1
F-0.7701508891870528
sI2
F-0.09478092343800809
sg3
I00
ssS'CHRISTODOULOU DIOMEDES'
p86
(dp87
I0
F-0.5602306768135935
sI1
F1.1835474330873097
sI2
F0.12070308574337112
sg3
I00
ssS'BERBERIAN DAVID'
p88
(dp89
I0
F-0.6185116685842931
sI1
F0.3193542865111367
sI2
F-0.019657470514114317
sg3
I00
ssS'DETMERING TIMOTHY J'
p90
(dp91
I0
F0.11634155080475776
sI1
F-0.13908403142505382
sI2
F-0.17492367425861688
sg3
I00
ssS'WAKEHAM JOHN'
p92
(dp93
I0
F-1.393193043954549
sI1
F0.16261902129922465
sI2
F0.07513911800121673
sg3
I00
ssS'POWERS WILLIAM'
p94
(dp95
I0
F-1.6305854218026756
sI1
F0.48812208456899225
sI2
F-0.7867213144096553
sg3
I00
ssS'GOLD JOSEPH'
p96
(dp97
I0
F-0.2354437182374091
sI1
F-0.16552522737707873
sI2
F-0.2138464869793655
sg3
I00
ssS'BANNANTINE JAMES M'
p98
(dp99
I0
F-0.7760183282876889
sI1
F0.9571608596144859
sI2
F-0.7651257085300754
sg3
I00
ssS'DUNCAN JOHN H'
p100
(dp101
I0
F-1.326052398934787
sI1
F0.2195006038588636
sI2
F0.07801778242407441
sg3
I00
ssS'SHAPIRO RICHARD S'
p102
(dp103
I0
F-0.2962091427229144
sI1
F-0.5145091829355742
sI2
F-0.691914889543126
sg3
I00
ssS'SHERRIFF JOHN R'
p104
(dp105
I0
F0.9081413167805741
sI1
F-0.23754437473450102
sI2
F0.19816537275676846
sg3
I00
ssS'SHELBY REX'
p106
(dp107
I0
F-0.41730098345157635
sI1
F0.29487995722198745
sI2
F1.2359444669052901
sg3
I01
ssS'LEMAISTRE CHARLES'
p108
(dp109
I0
F-1.3198870747349296
sI1
F0.22709153294547832
sI2
F0.07836189008662443
sg3
I00
ssS'DEFFNER JOSEPH M'
p110
(dp111
I0
F-0.20136354381313562
sI1
F-0.9750587889282287
sI2
F-0.7627558614927926
sg3
I00
ssS'KISHKILL JOSEPH G'
p112
(dp113
I0
F-0.9198618151832956
sI1
F0.04985251560261151
sI2
F-0.0115949108164174
sg3
I00
ssS'WHALLEY LAWRENCE G'
p114
(dp115
I0
F2.665518029728512
sI1
F-1.6949249940723863
sI2
F-1.33647969703325
sg3
I00
ssS'MCCARTY DANNY J'
p116
(dp117
I0
F-1.414407870465741
sI1
F0.37973562657346444
sI2
F-0.7352189147399335
sg3
I00
ssS'MCCONNELL MICHAEL S'
p118
(dp119
I0
F0.70980613257782
sI1
F-0.6338172318300531
sI2
F-0.8252968310023854
sg3
I00
ssS'DELAINEY DAVID W'
p120
(dp121
I0
F1.9650571688232814
sI1
F-0.7868689980439604
sI2
F-0.43118120662687526
sg3
I01
ssS'SULLIVAN-SHAKLOVITZ COLLEEN'
p122
(dp123
I0
F-0.5015124826214203
sI1
F0.2179841523326337
sI2
F-0.15421620955052381
sg3
I00
ssS'WROBEL BRUCE'
p124
(dp125
I0
F-1.3723366552187435
sI1
F0.18829802255921058
sI2
F0.076303183822326
sg3
I00
ssS'LINDHOLM TOD A'
p126
(dp127
I0
F-0.2865995859475129
sI1
F0.39314917060837506
sI2
F-0.0891844170680784
sg3
I00
ssS'MEYER JEROME J'
p128
(dp129
I0
F-1.375687055298506
sI1
F0.14462444063001076
sI2
F0.07478376622451541
sg3
I00
ssS'LAY KENNETH L'
p130
(dp131
I0
F12.676706026051884
sI1
F3.7098870041176504
sI2
F-0.04993445285440526
sg3
I01
ssS'BUTTS ROBERT H'
p132
(dp133
I0
F-0.36126516436290684
sI1
F-0.26859080676617425
sI2
F-0.17785876789973976
sg3
I00
ssS'OLSON CINDY K'
p134
(dp135
I0
F0.0916697144236427
sI1
F0.0357482971861891
sI2
F0.67313494044119
sg3
I00
ssS'MCDONALD REBECCA'
p136
(dp137
I0
F-1.156540173328153
sI1
F0.14657539189141508
sI2
F-0.3405708227186432
sg3
I00
ssS'CUMBERLAND MICHAEL S'
p138
(dp139
I0
F-0.6982200005480352
sI1
F-0.08199646420235526
sI2
F-0.12380854931094701
sg3
I00
ssS'GAHN ROBERT S'
p140
(dp141
I0
F-0.7368100261912811
sI1
F-0.10624916128549741
sI2
F-0.07141128975006118
sg3
I00
ssS'MCCLELLAN GEORGE'
p142
(dp143
I0
F-0.3039610537875655
sI1
F-0.3967304631248528
sI2
F-1.0253115431578084
sg3
I00
ssS'HERMANN ROBERT J'
p144
(dp145
I0
F-0.26641925185736914
sI1
F-0.3144260817213921
sI2
F-0.1670702704950435
sg3
I00
ssS'SCRIMSHAW MATTHEW'
p146
(dp147
I0
F-1.279331072711812
sI1
F0.3028092402313827
sI2
F0.08149414095014436
sg3
I00
ssS'GATHMANN WILLIAM D'
p148
(dp149
I0
F-1.1173209154193064
sI1
F0.5013459736986999
sI2
F0.09034976880845504
sg3
I00
ssS'HAEDICKE MARK E'
p150
(dp151
I0
F1.5158013325324993
sI1
F-2.221867211040211
sI2
F-1.2391688712592313
sg3
I00
ssS'BOWEN JR RAYMOND M'
p152
(dp153
I0
F1.1563514782739102
sI1
F-1.7340026576680836
sI2
F1.936151219180939
sg3
I01
ssS'GILLIS JOHN'
p154
(dp155
I0
F-1.3865886576731938
sI1
F0.17038045734601368
sI2
F0.075433826931635
sg3
I00
ssS'FITZGERALD JAY L'
p156
(dp157
I0
F-0.15952948510257947
sI1
F0.1316548598924188
sI2
F1.9171322146671592
sg3
I00
ssS'MORAN MICHAEL P'
p158
(dp159
I0
F-1.6187076145663193
sI1
F0.5200065679169826
sI2
F-0.7856077771968962
sg3
I00
ssS'REDMOND BRIAN L'
p160
(dp161
I0
F0.8166861818641167
sI1
F-0.2721048552843265
sI2
F0.4682651581705519
sg3
I00
ssS'BAZELIDES PHILIP J'
p162
(dp163
I0
F-0.9278552500384534
sI1
F0.376522815313516
sI2
F0.022189082299507473
sg3
I00
ssS'BELDEN TIMOTHY N'
p164
(dp165
I0
F3.396410793022963
sI1
F-4.1252678555840445
sI2
F-0.18105560900976092
sg3
I01
ssS'DURAN WILLIAM D'
p166
(dp167
I0
F0.6259233553290889
sI1
F-0.7820738205775183
sI2
F0.19875284657913003
sg3
I00
ssS'THORN TERENCE H'
p168
(dp169
I0
F-0.35688572653602535
sI1
F1.1247996039519488
sI2
F-0.9152159748264743
sg3
I00
ssS'FASTOW ANDREW S'
p170
(dp171
I0
F2.101196344010964
sI1
F-1.5662271455220311
sI2
F0.4423759359269939
sg3
I01
ssS'FOY JOE'
p172
(dp173
I0
F-1.5870919106350776
sI1
F0.5597213515461795
sI2
F-0.7836857160290153
sg3
I00
ssS'CALGER CHRISTOPHER F'
p174
(dp175
I0
F0.7510117170017981
sI1
F-2.158936809896023
sI2
F-0.17752168362714035
sg3
I01
ssS'RICE KENNETH D'
p176
(dp177
I0
F5.979062553561787
sI1
F1.3494392402621391
sI2
F-0.154390140634925
sg3
I01
ssS'KAMINSKI WINCENTY J'
p178
(dp179
I0
F-0.37797393482004427
sI1
F-0.1067326960668535
sI2
F-0.9903432533946745
sg3
I00
ssS'LOCKHART EUGENE E'
p180
(dp181
I0
F-1.393193043954549
sI1
F0.16261902129922465
sI2
F0.07513911800121673
sg3
I00
ssS'COX DAVID'
p182
(dp183
I0
F-0.4568874929070359
sI1
F-0.022729882930302838
sI2
F-0.3011702057302535
sg3
I00
ssS'OVERDYKE JR JERE C'
p184
(dp185
I0
F-0.18703796375276024
sI1
F1.198614027738777
sI2
F0.04015317123488903
sg3
I00
ssS'PEREIRA PAULO V. FERRAZ'
p186
(dp187
I0
F-1.3469696738136123
sI1
F0.11510555724148962
sI2
F0.07420083584946666
sg3
I00
ssS'STABLER FRANK'
p188
(dp189
I0
F-0.6315176633181444
sI1
F-0.14354384204369106
sI2
F-0.09466466766083041
sg3
I00
ssS'SKILLING JEFFREY K'
p190
(dp191
I0
F8.067967396725273
sI1
F1.1913682044826508
sI2
F-0.6111278522028062
sg3
I01
ssS'BLAKE JR. NORMAN P'
p192
(dp193
I0
F-1.341247562985499
sI1
F0.10922374234272764
sI2
F0.07408468346931815
sg3
I00
ssS'SHERRICK JEFFREY B'
p194
(dp195
I0
F-0.5919841513040529
sI1
F0.03312264274201874
sI2
F3.502355459338888
sg3
I00
ssS'PRENTICE JAMES'
p196
(dp197
I0
F-1.2462038131459037
sI1
F0.34257753994650775
sI2
F0.0831396009358735
sg3
I00
ssS'GRAY RODNEY'
p198
(dp199
I0
F-1.1865180097973973
sI1
F0.14644118160352257
sI2
F-0.02566454511203
sg3
I00
ssS'PICKERING MARK R'
p200
(dp201
I0
F-0.052125903350161346
sI1
F-0.27268560470787473
sI2
F-1.1534922694363972
sg3
I00
ssS'THE TRAVEL AGENCY IN THE PARK'
p202
(dp203
I0
F-1.393193043954549
sI1
F0.16261902129922465
sI2
F0.07513911800121673
sg3
I00
ssS'NOLES JAMES L'
p204
(dp205
I0
F-1.3682286647504207
sI1
F0.19155667088053518
sI2
F0.07617316097822482
sg3
I00
ssS'KEAN STEVEN J'
p206
(dp207
I0
F1.0595519762355212
sI1
F-0.8179126299016991
sI2
F-0.8565886808417006
sg3
I00
ssS'FOWLER PEGGY'
p208
(dp209
I0
F-1.4020846272927896
sI1
F0.7847742239623942
sI2
F-0.7739057185563861
sg3
I00
ssS'WASAFF GEORGE'
p210
(dp211
I0
F0.011470751000899733
sI1
F-0.10750748723915862
sI2
F0.3870790833891816
sg3
I00
ssS'WHITE JR THOMAS E'
p212
(dp213
I0
F0.6155498773022272
sI1
F1.0775987655120693
sI2
F-0.08147838437094117
sg3
I00
ssS'ALLEN PHILLIP K'
p214
(dp215
I0
F2.5702253327432247
sI1
F-2.246310815649117
sI2
F-1.2338845718561438
sg3
I00
ssS'SHARP VICTORIA T'
p216
(dp217
I0
F-0.42880418489100236
sI1
F-0.0789974194885982
sI2
F-0.8280718608268882
sg3
I00
ssS'JAEDICKE ROBERT'
p218
(dp219
I0
F-1.3170580531851406
sI1
F0.2305747077588072
sI2
F0.07851978737819328
sg3
I00
ssS'WINOKUR JR. HERBERT S'
p220
(dp221
I0
F-1.3817798661419722
sI1
F0.15088730177879625
sI2
F0.07490744339584635
sg3
I00
ssS'BROWN MICHAEL'
p222
(dp223
I0
F-1.5599166438258296
sI1
F0.35772578620732465
sI2
F-0.6463510775309276
sg3
I00
ssS'BADUM JAMES P'
p224
(dp225
I0
F-1.3545447899856033
sI1
F0.2102038920520866
sI2
F0.07729620818881766
sg3
I00
ssS'HUGHES JAMES A'
p226
(dp227
I0
F-1.2173863839326173
sI1
F0.24792192179784764
sI2
F0.08337534424611091
sg3
I00
ssS'REYNOLDS LAWRENCE'
p228
(dp229
I0
F-0.38432111417262643
sI1
F0.7402744849842509
sI2
F0.01780620481278972
sg3
I00
ssS'DIMICHELE RICHARD G'
p230
(dp231
I0
F1.19122627391769
sI1
F1.1842565987276366
sI2
F-0.27295115897415073
sg3
I00
ssS'BHATNAGAR SANJAY'
p232
(dp233
I0
F0.7087629531893892
sI1
F3.330818294536863
sI2
F-0.4517168145458204
sg3
I00
ssS'CARTER REBECCA C'
p234
(dp235
I0
F-0.2940977937243588
sI1
F-0.4311841904725005
sI2
F1.7986978892906047
sg3
I00
ssS'BUCHANAN HAROLD G'
p236
(dp237
I0
F-0.5961676166191706
sI1
F0.3007856801369753
sI2
F-1.035932221105077
sg3
I00
ssS'YEAP SOON'
p238
(dp239
I0
F-1.3642975089877096
sI1
F0.19819605662498022
sI2
F0.07675187585031745
sg3
I00
ssS'MURRAY JULIA H'
p240
(dp241
I0
F-0.7481684914152683
sI1
F0.13867067625948803
sI2
F-0.7117060331553262
sg3
I00
ssS'GARLAND C KEVIN'
p242
(dp243
I0
F0.10966260802922803
sI1
F-0.21528087636419102
sI2
F2.571453436335294
sg3
I00
ssS'DODSON KEITH'
p244
(dp245
I0
F-0.8953588561895541
sI1
F0.05478768291465531
sI2
F0.36674731766239443
sg3
I00
ssS'YEAGER F SCOTT'
p246
(dp247
I0
F0.7738291208220579
sI1
F1.3720610335992771
sI2
F1.2633284102878846
sg3
I01
ssS'HIRKO JOSEPH'
p248
(dp249
I0
F3.5527558436588467
sI1
F5.39086895964336
sI2
F1.5222502101603679
sg3
I01
ssS'DIETRICH JANET R'
p250
(dp251
I0
F1.2361512626073445
sI1
F-2.6534697028568393
sI2
F0.09601292049091573
sg3
I00
ssS'DERRICK JR. JAMES V'
p252
(dp253
I0
F2.2283000077999566
sI1
F0.21993764847252914
sI2
F-1.077644765644074
sg3
I00
ssS'FREVERT MARK A'
p254
(dp255
I0
F7.04511876195224
sI1
F-2.8490948825656983
sI2
F-0.28037198067458363
sg3
I00
ssS'PAI LOU L'
p256
(dp257
I0
F2.46292149520185
sI1
F3.1810234231445156
sI2
F-0.0039787540911346815
sg3
I00
ssS'BAY FRANKLIN R'
p258
(dp259
I0
F-0.610420819285073
sI1
F-0.25101651761123467
sI2
F-0.0881410934129409
sg3
I00
ssS'HAYSLETT RODERICK J'
p260
(dp261
I0
F-1.4296035804630323
sI1
F0.16617288088457985
sI2
F-0.5860195513003981
sg3
I00
ssS'FUGH JOHN L'
p262
(dp263
I0
F-1.3667529653773631
sI1
F0.19517282626029547
sI2
F0.07661482849784294
sg3
I00
ssS'FALLON JAMES B'
p264
(dp265
I0
F1.1002889008463859
sI1
F-0.7586456834299927
sI2
F1.6498601409484284
sg3
I00
ssS'KOENIG MARK E'
p266
(dp267
I0
F0.11651605044045422
sI1
F-0.3924651629870244
sI2
F0.3604410463834759
sg3
I01
ssS'SAVAGE FRANK'
p268
(dp269
I0
F-1.3378236096417258
sI1
F0.10570422648659909
sI2
F0.07401518108770704
sg3
I00
ssS'IZZO LAWRENCE L'
p270
(dp271
I0
F-0.36146754698510986
sI1
F0.6812190173378903
sI2
F0.6722568444102318
sg3
I00
ssS'TILNEY ELIZABETH A'
p272
(dp273
I0
F0.1119783553568035
sI1
F-0.3385887560703005
sI2
F2.4322880229849115
sg3
I00
ssS'MARTIN AMANDA K'
p274
(dp275
I0
F2.174649049262703
sI1
F0.3232896326240974
sI2
F-2.3222194280647948
sg3
I00
ssS'BUY RICHARD B'
p276
(dp277
I0
F1.360675593152082
sI1
F-1.379428363047092
sI2
F-0.8911667456887875
sg3
I00
ssS'GRAMM WENDY L'
p278
(dp279
I0
F-1.393193043954549
sI1
F0.16261902129922465
sI2
F0.07513911800121673
sg3
I00
ssS'CAUSEY RICHARD A'
p280
(dp281
I0
F0.6077419016443777
sI1
F-0.7477425632930293
sI2
F0.25180518169156135
sg3
I01
ssS'TAYLOR MITCHELL S'
p282
(dp283
I0
F-0.2994694703021006
sI1
F0.7337976339317756
sI2
F-0.9524941541775802
sg3
I00
ssS'DONAHUE JR JEFFREY M'
p284
(dp285
I0
F0.8367987687076132
sI1
F-2.0129104942667126
sI2
F1.9029318614513033
sg3
I00
ssS'GLISAN JR BEN F'
p286
(dp287
I0
F-0.1127487236796349
sI1
F-0.5084578516595617
sI2
F1.2141308570419136
sg3
I01
ss.